; ModuleID = '29/218.c'
source_filename = "29/218.c"
target datalayout = "e-m:e-p270:32:32-p271:32:32-p272:64:64-i64:64-f80:128-n8:16:32:64-S128"
target triple = "x86_64-pc-linux-gnu"

@.str = private unnamed_addr constant [3 x i8] c"%d\00", align 1
@.str.1 = private unnamed_addr constant [7 x i8] c"2.000\0A\00", align 1
@.str.2 = private unnamed_addr constant [7 x i8] c"3.500\0A\00", align 1
@.str.3 = private unnamed_addr constant [6 x i8] c"%.3f\0A\00", align 1

; Function Attrs: noinline nounwind uwtable
define dso_local i32 @main() #0 {
  %1 = alloca i32, align 4
  %2 = alloca i32, align 4
  %3 = alloca [100 x i32], align 16
  %4 = alloca i32, align 4
  %5 = alloca i32, align 4
  %6 = alloca [100 x float], align 16
  %7 = alloca [100 x float], align 16
  %8 = alloca [100 x float], align 16
  %9 = alloca float, align 4
  store i32 0, i32* %1, align 4
  store float 3.500000e+00, float* %9, align 4
  %10 = getelementptr inbounds [100 x float], [100 x float]* %7, i64 0, i64 0
  store float 1.000000e+00, float* %10, align 16
  %11 = getelementptr inbounds [100 x float], [100 x float]* %7, i64 0, i64 1
  store float 2.000000e+00, float* %11, align 4
  %12 = getelementptr inbounds [100 x float], [100 x float]* %8, i64 0, i64 0
  store float 2.000000e+00, float* %12, align 16
  %13 = getelementptr inbounds [100 x float], [100 x float]* %8, i64 0, i64 1
  store float 3.000000e+00, float* %13, align 4
  %14 = call i32 (i8*, ...) @__isoc99_scanf(i8* getelementptr inbounds ([3 x i8], [3 x i8]* @.str, i64 0, i64 0), i32* %2)
  store i32 0, i32* %5, align 4
  br label %15

15:                                               ; preds = %24, %0
  %16 = load i32, i32* %5, align 4
  %17 = load i32, i32* %2, align 4
  %18 = icmp slt i32 %16, %17
  br i1 %18, label %19, label %27

19:                                               ; preds = %15
  %20 = load i32, i32* %5, align 4
  %21 = sext i32 %20 to i64
  %22 = getelementptr inbounds [100 x i32], [100 x i32]* %3, i64 0, i64 %21
  %23 = call i32 (i8*, ...) @__isoc99_scanf(i8* getelementptr inbounds ([3 x i8], [3 x i8]* @.str, i64 0, i64 0), i32* %22)
  br label %24

24:                                               ; preds = %19
  %25 = load i32, i32* %5, align 4
  %26 = add nsw i32 %25, 1
  store i32 %26, i32* %5, align 4
  br label %15

27:                                               ; preds = %15
  store i32 0, i32* %5, align 4
  br label %28

28:                                               ; preds = %112, %27
  %29 = load i32, i32* %5, align 4
  %30 = load i32, i32* %2, align 4
  %31 = icmp slt i32 %29, %30
  br i1 %31, label %32, label %115

32:                                               ; preds = %28
  store float 3.500000e+00, float* %9, align 4
  %33 = load i32, i32* %5, align 4
  %34 = sext i32 %33 to i64
  %35 = getelementptr inbounds [100 x i32], [100 x i32]* %3, i64 0, i64 %34
  %36 = load i32, i32* %35, align 4
  %37 = icmp eq i32 %36, 1
  br i1 %37, label %38, label %40

38:                                               ; preds = %32
  %39 = call i32 (i8*, ...) @printf(i8* getelementptr inbounds ([7 x i8], [7 x i8]* @.str.1, i64 0, i64 0))
  br label %111

40:                                               ; preds = %32
  %41 = load i32, i32* %5, align 4
  %42 = sext i32 %41 to i64
  %43 = getelementptr inbounds [100 x i32], [100 x i32]* %3, i64 0, i64 %42
  %44 = load i32, i32* %43, align 4
  %45 = icmp eq i32 %44, 2
  br i1 %45, label %46, label %48

46:                                               ; preds = %40
  %47 = call i32 (i8*, ...) @printf(i8* getelementptr inbounds ([7 x i8], [7 x i8]* @.str.2, i64 0, i64 0))
  br label %110

48:                                               ; preds = %40
  store i32 2, i32* %4, align 4
  br label %49

49:                                               ; preds = %103, %48
  %50 = load i32, i32* %4, align 4
  %51 = load i32, i32* %5, align 4
  %52 = sext i32 %51 to i64
  %53 = getelementptr inbounds [100 x i32], [100 x i32]* %3, i64 0, i64 %52
  %54 = load i32, i32* %53, align 4
  %55 = icmp slt i32 %50, %54
  br i1 %55, label %56, label %106

56:                                               ; preds = %49
  %57 = load i32, i32* %4, align 4
  %58 = sub nsw i32 %57, 1
  %59 = sext i32 %58 to i64
  %60 = getelementptr inbounds [100 x float], [100 x float]* %7, i64 0, i64 %59
  %61 = load float, float* %60, align 4
  %62 = load i32, i32* %4, align 4
  %63 = sub nsw i32 %62, 2
  %64 = sext i32 %63 to i64
  %65 = getelementptr inbounds [100 x float], [100 x float]* %7, i64 0, i64 %64
  %66 = load float, float* %65, align 4
  %67 = fadd float %61, %66
  %68 = load i32, i32* %4, align 4
  %69 = sext i32 %68 to i64
  %70 = getelementptr inbounds [100 x float], [100 x float]* %7, i64 0, i64 %69
  store float %67, float* %70, align 4
  %71 = load i32, i32* %4, align 4
  %72 = sub nsw i32 %71, 1
  %73 = sext i32 %72 to i64
  %74 = getelementptr inbounds [100 x float], [100 x float]* %8, i64 0, i64 %73
  %75 = load float, float* %74, align 4
  %76 = load i32, i32* %4, align 4
  %77 = sub nsw i32 %76, 2
  %78 = sext i32 %77 to i64
  %79 = getelementptr inbounds [100 x float], [100 x float]* %8, i64 0, i64 %78
  %80 = load float, float* %79, align 4
  %81 = fadd float %75, %80
  %82 = load i32, i32* %4, align 4
  %83 = sext i32 %82 to i64
  %84 = getelementptr inbounds [100 x float], [100 x float]* %8, i64 0, i64 %83
  store float %81, float* %84, align 4
  %85 = load i32, i32* %4, align 4
  %86 = sext i32 %85 to i64
  %87 = getelementptr inbounds [100 x float], [100 x float]* %8, i64 0, i64 %86
  %88 = load float, float* %87, align 4
  %89 = load i32, i32* %4, align 4
  %90 = sext i32 %89 to i64
  %91 = getelementptr inbounds [100 x float], [100 x float]* %7, i64 0, i64 %90
  %92 = load float, float* %91, align 4
  %93 = fdiv float %88, %92
  %94 = load i32, i32* %4, align 4
  %95 = sext i32 %94 to i64
  %96 = getelementptr inbounds [100 x float], [100 x float]* %6, i64 0, i64 %95
  store float %93, float* %96, align 4
  %97 = load float, float* %9, align 4
  %98 = load i32, i32* %4, align 4
  %99 = sext i32 %98 to i64
  %100 = getelementptr inbounds [100 x float], [100 x float]* %6, i64 0, i64 %99
  %101 = load float, float* %100, align 4
  %102 = fadd float %97, %101
  store float %102, float* %9, align 4
  br label %103

103:                                              ; preds = %56
  %104 = load i32, i32* %4, align 4
  %105 = add nsw i32 %104, 1
  store i32 %105, i32* %4, align 4
  br label %49

106:                                              ; preds = %49
  %107 = load float, float* %9, align 4
  %108 = fpext float %107 to double
  %109 = call i32 (i8*, ...) @printf(i8* getelementptr inbounds ([6 x i8], [6 x i8]* @.str.3, i64 0, i64 0), double %108)
  br label %110

110:                                              ; preds = %106, %46
  br label %111

111:                                              ; preds = %110, %38
  br label %112

112:                                              ; preds = %111
  %113 = load i32, i32* %5, align 4
  %114 = add nsw i32 %113, 1
  store i32 %114, i32* %5, align 4
  br label %28

115:                                              ; preds = %28
  ret i32 0
}

declare dso_local i32 @__isoc99_scanf(i8*, ...) #1

declare dso_local i32 @printf(i8*, ...) #1


!llvm.module.flags = !{!0}
!llvm.ident = !{!1}

!0 = !{i32 1, !"wchar_size", i32 4}
!1 = !{!"clang version 10.0.0-4ubuntu1 "}
